; Function Attrs: mustprogress nofree norecurse nosync nounwind willreturn memory(read, inaccessiblemem: none) uwtable
define noundef zeroext i1 @_ZNK10open_spiel10battleship15BattleshipState14AllShipsPlacedEv(ptr noundef nonnull readonly align 8 captures(none) dereferenceable(104) %0) local_unnamed_addr #5 align 2 {
  %2 = getelementptr inbounds nuw i8, ptr %0, i64 64
  %3 = load ptr, ptr %2, align 8
  %4 = getelementptr inbounds nuw i8, ptr %0, i64 80
  %5 = load ptr, ptr %4, align 8
  %6 = getelementptr inbounds nuw i8, ptr %0, i64 88
  %7 = load ptr, ptr %6, align 8
  %.not4.i.i.i = icmp eq ptr %5, %7
  br i1 %.not4.i.i.i, label %_ZNK10open_spiel10battleship15BattleshipState14NumShipsPlacedEv.exit, label %.lr.ph.i.i.i

.lr.ph.i.i.i:                                     ; preds = %1, %.lr.ph.i.i.i
  %.06.i.i.i = phi i32 [ %spec.select.i.i.i, %.lr.ph.i.i.i ], [ 0, %1 ]
  %.sroa.02.05.i.i.i = phi ptr [ %11, %.lr.ph.i.i.i ], [ %5, %1 ]
  %8 = getelementptr i8, ptr %.sroa.02.05.i.i.i, i64 40
  %.val.i.i.i.i = load i64, ptr %8, align 8
  %9 = icmp eq i64 %.val.i.i.i.i, 0
  %10 = zext i1 %9 to i32
  %spec.select.i.i.i = add i32 %.06.i.i.i, %10
  %11 = getelementptr inbounds nuw i8, ptr %.sroa.02.05.i.i.i, i64 48
  %.not.i.i.i = icmp eq ptr %11, %7
  br i1 %.not.i.i.i, label %_ZNK10open_spiel10battleship15BattleshipState14NumShipsPlacedEv.exit.loopexit, label %.lr.ph.i.i.i, !llvm.loop !4

_ZNK10open_spiel10battleship15BattleshipState14NumShipsPlacedEv.exit.loopexit: ; preds = %.lr.ph.i.i.i
  %12 = sext i32 %spec.select.i.i.i to i64
  br label %_ZNK10open_spiel10battleship15BattleshipState14NumShipsPlacedEv.exit

_ZNK10open_spiel10battleship15BattleshipState14NumShipsPlacedEv.exit: ; preds = %_ZNK10open_spiel10battleship15BattleshipState14NumShipsPlacedEv.exit.loopexit, %1
  %.0.lcssa.i.i.i = phi i64 [ 0, %1 ], [ %12, %_ZNK10open_spiel10battleship15BattleshipState14NumShipsPlacedEv.exit.loopexit ]
  %13 = getelementptr inbounds nuw i8, ptr %3, i64 288
  %14 = getelementptr inbounds nuw i8, ptr %3, i64 296
  %15 = load ptr, ptr %14, align 8
  %16 = load ptr, ptr %13, align 8
  %17 = ptrtoint ptr %15 to i64
  %18 = ptrtoint ptr %16 to i64
  %19 = sub i64 %17, %18
  %20 = ashr exact i64 %19, 3
  %21 = icmp eq i64 %20, %.0.lcssa.i.i.i
  ret i1 %21
}